target datalayout = "e-m:e-p270:32:32-p271:32:32-p272:64:64-i64:64-i128:128-f80:128-n8:16:32:64-S128"
target triple = "x86_64-pc-linux-gnu"

%class.VM_G1CollectForAllocation = type <{ %class.VM_CollectForAllocation, i8, [7 x i8] }>
%class.VM_CollectForAllocation = type { %class.VM_GC_Operation.base, i64, ptr }
%class.VM_GC_Operation.base = type <{ %class.VM_GC_Sync_Operation, i32, i32, i8, i8, [2 x i8], i32, i8 }>
%class.VM_GC_Sync_Operation = type { %class.VM_Operation }
%class.VM_Operation = type { ptr, ptr }
%class.VM_GC_Operation = type <{ %class.VM_GC_Sync_Operation, i32, i32, i8, i8, [2 x i8], i32, i8, [7 x i8] }>

; Function Attrs: mustprogress nounwind uwtable
define linkonce_odr hidden void @_ZN23VM_CollectForAllocationD2Ev(ptr noundef nonnull align 8 dereferenceable(56) %0) unnamed_addr #1 comdat align 2 {
  %2 = alloca ptr, align 8
  store ptr %0, ptr %2, align 8
  %3 = load ptr, ptr %2, align 8
  call void @_ZN15VM_GC_OperationD2Ev(ptr noundef nonnull align 8 dereferenceable(33) %3) #10
  ret void
}

; Function Attrs: mustprogress nounwind uwtable
define linkonce_odr hidden void @_ZN25VM_G1CollectForAllocationD2Ev(ptr noundef nonnull align 8 dereferenceable(57) %0) unnamed_addr #1 comdat align 2 {
  %2 = alloca ptr, align 8
  store ptr %0, ptr %2, align 8
  %3 = load ptr, ptr %2, align 8
  call void @_ZN23VM_CollectForAllocationD2Ev(ptr noundef nonnull align 8 dereferenceable(56) %3) #10
  ret void
}

; Function Attrs: mustprogress nounwind uwtable
define linkonce_odr hidden noundef zeroext i1 @_ZNK25VM_G1CollectForAllocation12gc_succeededEv(ptr noundef nonnull align 8 dereferenceable(57) %0) #1 comdat align 2 {
  %2 = alloca ptr, align 8
  store ptr %0, ptr %2, align 8
  %3 = load ptr, ptr %2, align 8
  %4 = getelementptr inbounds %class.VM_G1CollectForAllocation, ptr %3, i32 0, i32 1
  %5 = load i8, ptr %4, align 8
  %6 = trunc i8 %5 to i1
  ret i1 %6
}

; Function Attrs: mustprogress nounwind uwtable
define linkonce_odr hidden noundef zeroext i1 @_ZNK15VM_GC_Operation18prologue_succeededEv(ptr noundef nonnull align 8 dereferenceable(33) %0) #1 comdat align 2 {
  %2 = alloca ptr, align 8
  store ptr %0, ptr %2, align 8
  %3 = load ptr, ptr %2, align 8
  %4 = getelementptr inbounds %class.VM_GC_Operation, ptr %3, i32 0, i32 4
  %5 = load i8, ptr %4, align 1
  %6 = trunc i8 %5 to i1
  ret i1 %6
}

; Function Attrs: mustprogress nounwind uwtable
define linkonce_odr hidden noundef ptr @_ZNK23VM_CollectForAllocation6resultEv(ptr noundef nonnull align 8 dereferenceable(56) %0) #1 comdat align 2 {
  %2 = alloca ptr, align 8
  store ptr %0, ptr %2, align 8
  %3 = load ptr, ptr %2, align 8
  %4 = getelementptr inbounds %class.VM_CollectForAllocation, ptr %3, i32 0, i32 2
  %5 = load ptr, ptr %4, align 8
  ret ptr %5
}

; Function Attrs: mustprogress nounwind uwtable
define hidden noundef ptr @_ZN15G1CollectedHeap19do_collection_pauseEmjPbN7GCCause5CauseE(ptr noundef nonnull align 8 dereferenceable(1488) %0, i64 noundef %1, i32 noundef %2, ptr noundef %3, i32 noundef %4) #1 align 2 {
  %6 = alloca ptr, align 8
  %7 = alloca i64, align 8
  %8 = alloca i32, align 4
  %9 = alloca ptr, align 8
  %10 = alloca i32, align 4
  %11 = alloca %class.VM_G1CollectForAllocation, align 8
  %12 = alloca ptr, align 8
  %13 = alloca i8, align 1
  store ptr %0, ptr %6, align 8
  store i64 %1, ptr %7, align 8
  store i32 %2, ptr %8, align 4
  store ptr %3, ptr %9, align 8
  store i32 %4, ptr %10, align 4
  br label %14

14:                                               ; preds = %5
  br label %15

15:                                               ; preds = %14
  %16 = load i64, ptr %7, align 8
  %17 = load i32, ptr %8, align 4
  %18 = load i32, ptr %10, align 4
  call void @_ZN25VM_G1CollectForAllocationC1EmjN7GCCause5CauseE(ptr noundef nonnull align 8 dereferenceable(57) %11, i64 noundef %16, i32 noundef %17, i32 noundef %18)
  call void @_ZN8VMThread7executeEP12VM_Operation(ptr noundef %11)
  %19 = call noundef ptr @_ZNK23VM_CollectForAllocation6resultEv(ptr noundef nonnull align 8 dereferenceable(56) %11)
  store ptr %19, ptr %12, align 8
  %20 = call noundef zeroext i1 @_ZNK15VM_GC_Operation18prologue_succeededEv(ptr noundef nonnull align 8 dereferenceable(33) %11)
  br i1 %20, label %21, label %23

21:                                               ; preds = %15
  %22 = call noundef zeroext i1 @_ZNK25VM_G1CollectForAllocation12gc_succeededEv(ptr noundef nonnull align 8 dereferenceable(57) %11)
  br label %23

23:                                               ; preds = %21, %15
  %24 = phi i1 [ false, %15 ], [ %22, %21 ]
  %25 = zext i1 %24 to i8
  store i8 %25, ptr %13, align 1
  %26 = load i8, ptr %13, align 1
  %27 = trunc i8 %26 to i1
  %28 = load ptr, ptr %9, align 8
  %29 = zext i1 %27 to i8
  store i8 %29, ptr %28, align 1
  br label %30

30:                                               ; preds = %23
  br label %31

31:                                               ; preds = %30
  br label %32

32:                                               ; preds = %31
  %33 = load ptr, ptr %12, align 8
  call void @_ZN25VM_G1CollectForAllocationD2Ev(ptr noundef nonnull align 8 dereferenceable(57) %11) #10
  ret ptr %33
}