; Function Attrs: mustprogress nounwind uwtable
define hidden noundef ptr @_ZN15G1CollectedHeap19do_collection_pauseEmjPbN7GCCause5CauseE(ptr nocapture noundef nonnull readnone align 8 dereferenceable(1488) %0, i64 noundef %1, i32 noundef %2, ptr nocapture noundef writeonly %3, i32 noundef %4) local_unnamed_addr #0 align 2 {
  %6 = alloca %class.VM_G1CollectForAllocation, align 8
  call void @_ZN25VM_G1CollectForAllocationC1EmjN7GCCause5CauseE(ptr noundef nonnull align 8 dereferenceable(57) %6, i64 noundef %1, i32 noundef %2, i32 noundef %4) #23
  call void @_ZN8VMThread7executeEP12VM_Operation(ptr noundef nonnull %6) #23
  %7 = getelementptr inbounds i8, ptr %6, i64 48
  %8 = load ptr, ptr %7, align 8
  %9 = getelementptr inbounds i8, ptr %6, i64 25
  %10 = load i8, ptr %9, align 1
  %11 = trunc i8 %10 to i1
  %12 = getelementptr inbounds i8, ptr %6, i64 56
  %13 = load i8, ptr %12, align 8
  %14 = and i8 %13, 1
  %15 = select i1 %11, i8 %14, i8 0
  store i8 %15, ptr %3, align 1
  call void @_ZN15VM_GC_OperationD2Ev(ptr noundef nonnull align 8 dereferenceable(33) %6) #23
  ret ptr %8
}